; Function Attrs: mustprogress uwtable
define noundef nonnull align 8 dereferenceable(64) ptr @_ZNK6icu_7714SkeletonFields13appendFieldToEiRNS_13UnicodeStringE(ptr noundef nonnull readonly align 1 captures(none) dereferenceable(32) %0, i32 noundef %1, ptr noundef nonnull returned align 8 dereferenceable(64) %2) local_unnamed_addr #1 align 2 {
  %4 = alloca i16, align 2
  %5 = sext i32 %1 to i64
  %6 = getelementptr inbounds [16 x i8], ptr %0, i64 0, i64 %5
  %7 = load i8, ptr %6, align 1, !tbaa !17
  %8 = sext i8 %7 to i16
  %9 = getelementptr inbounds nuw i8, ptr %0, i64 16
  %10 = getelementptr inbounds [16 x i8], ptr %9, i64 0, i64 %5
  %11 = load i8, ptr %10, align 1, !tbaa !17
  %12 = sext i8 %11 to i32
  %13 = icmp sgt i8 %11, 0
  br i1 %13, label %.lr.ph, label %._crit_edge

._crit_edge:                                      ; preds = %.lr.ph, %3
  ret ptr %2

.lr.ph:                                           ; preds = %3, %.lr.ph
  %.08 = phi i32 [ %15, %.lr.ph ], [ 0, %3 ]
  call void @llvm.lifetime.start.p0(i64 2, ptr nonnull %4)
  store i16 %8, ptr %4, align 2, !tbaa !79
  %14 = call noundef nonnull align 8 dereferenceable(64) ptr @_ZN6icu_7713UnicodeString8doAppendEPKDsii(ptr noundef nonnull align 8 dereferenceable(64) %2, ptr noundef nonnull %4, i32 noundef 0, i32 noundef 1)
  call void @llvm.lifetime.end.p0(i64 2, ptr nonnull %4)
  %15 = add nuw nsw i32 %.08, 1
  %exitcond.not = icmp eq i32 %15, %12
  br i1 %exitcond.not, label %._crit_edge, label %.lr.ph, !llvm.loop !116
}